target datalayout = "e-m:e-p270:32:32-p271:32:32-p272:64:64-i64:64-i128:128-f80:128-n8:16:32:64-S128"
target triple = "x86_64-unknown-linux-gnu"

%"class.boost::detail::shared_count" = type { ptr }
%"class.QuantLib::Array" = type { %"class.std::unique_ptr", i64 }
%"class.std::unique_ptr" = type { %"struct.std::__uniq_ptr_data" }
%"struct.std::__uniq_ptr_data" = type { %"class.std::__uniq_ptr_impl" }
%"class.std::__uniq_ptr_impl" = type { %"class.std::tuple" }
%"class.std::tuple" = type { %"struct.std::_Tuple_impl" }
%"struct.std::_Tuple_impl" = type { %"struct.std::_Head_base.21" }
%"struct.std::_Head_base.21" = type { ptr }
%"class.QuantLib::TripleBandLinearOp" = type { %"class.QuantLib::FdmLinearOp", i64, %"class.std::unique_ptr.29", %"class.std::unique_ptr.29", %"class.std::unique_ptr.29", %"class.std::unique_ptr", %"class.std::unique_ptr", %"class.std::unique_ptr", %"class.boost::shared_ptr.37" }
%"class.QuantLib::FdmLinearOp" = type { ptr }
%"class.std::unique_ptr.29" = type { %"struct.std::__uniq_ptr_data.30" }
%"struct.std::__uniq_ptr_data.30" = type { %"class.std::__uniq_ptr_impl.31" }
%"class.std::__uniq_ptr_impl.31" = type { %"class.std::tuple.32" }
%"class.std::tuple.32" = type { %"struct.std::_Tuple_impl.33" }
%"struct.std::_Tuple_impl.33" = type { %"struct.std::_Head_base.36" }
%"struct.std::_Head_base.36" = type { ptr }
%"class.boost::shared_ptr.37" = type { ptr, %"class.boost::detail::shared_count" }
%"class.QuantLib::NinePointLinearOp" = type { %"class.QuantLib::FdmLinearOp", i64, i64, %"class.std::unique_ptr.29", %"class.std::unique_ptr.29", %"class.std::unique_ptr.29", %"class.std::unique_ptr.29", %"class.std::unique_ptr.29", %"class.std::unique_ptr.29", %"class.std::unique_ptr.29", %"class.std::unique_ptr.29", %"class.std::unique_ptr", %"class.std::unique_ptr", %"class.std::unique_ptr", %"class.std::unique_ptr", %"class.std::unique_ptr", %"class.std::unique_ptr", %"class.std::unique_ptr", %"class.std::unique_ptr", %"class.std::unique_ptr", %"class.boost::shared_ptr.37" }
%"class.QuantLib::FdmG2Op" = type { %"class.QuantLib::FdmLinearOpComposite", i64, i64, %"class.QuantLib::Array", %"class.QuantLib::Array", %"class.QuantLib::TripleBandLinearOp", %"class.QuantLib::TripleBandLinearOp", %"class.QuantLib::NinePointLinearOp", %"class.QuantLib::TripleBandLinearOp", %"class.QuantLib::TripleBandLinearOp", %"class.boost::shared_ptr.38" }
%"class.QuantLib::FdmLinearOpComposite" = type { %"class.QuantLib::FdmLinearOp" }
%"class.boost::shared_ptr.38" = type { ptr, %"class.boost::detail::shared_count" }

; Function Attrs: mustprogress uwtable
define void @_ZNK8QuantLib7FdmG2Op14preconditionerERKNS_5ArrayEd(ptr dead_on_unwind noalias writable sret(%"class.QuantLib::Array") align 8 %agg.result, ptr noundef nonnull align 8 dereferenceable(568) %this, ptr noundef nonnull align 8 dereferenceable(16) %r, double noundef %dt) unnamed_addr #3 align 2 {
entry:
  %result.ptr = alloca ptr, align 8
  %this.addr = alloca ptr, align 8
  %r.addr = alloca ptr, align 8
  %dt.addr = alloca double, align 8
  store ptr %agg.result, ptr %result.ptr, align 8
  store ptr %this, ptr %this.addr, align 8, !tbaa !3
  store ptr %r, ptr %r.addr, align 8, !tbaa !3
  store double %dt, ptr %dt.addr, align 8, !tbaa !11
  %this1 = load ptr, ptr %this.addr, align 8
  %direction1_ = getelementptr inbounds nuw %"class.QuantLib::FdmG2Op", ptr %this1, i32 0, i32 1
  %0 = load i64, ptr %direction1_, align 8, !tbaa !21
  %1 = load ptr, ptr %r.addr, align 8, !tbaa !3
  %2 = load double, ptr %dt.addr, align 8, !tbaa !11
  %vtable = load ptr, ptr %this1, align 8, !tbaa !7
  %vfn = getelementptr inbounds ptr, ptr %vtable, i64 8
  %3 = load ptr, ptr %vfn, align 8
  call void %3(ptr dead_on_unwind writable sret(%"class.QuantLib::Array") align 8 %agg.result, ptr noundef nonnull align 8 dereferenceable(568) %this1, i64 noundef %0, ptr noundef nonnull align 8 dereferenceable(16) %1, double noundef %2)
  ret void
}